target datalayout = "e-m:e-p270:32:32-p271:32:32-p272:64:64-i64:64-i128:128-f80:128-n8:16:32:64-S128"
target triple = "x86_64-pc-linux-gnu"

%struct.client_io_info = type { i32, ptr, %struct.io_hdr_t, ptr, i32, i8, ptr, ptr, i32, i8, i32, i32, i8, i32, i8 }
%struct.io_hdr_t = type { i32, i16, i16, i32 }
%struct.stepd_step_rec_t = type { ptr, ptr, i32, %union.pthread_cond_t, %union.pthread_mutex_t, %struct.slurm_step_id_msg, i32, i32, i32, i32, i32, i32, ptr, ptr, i32, i32, ptr, i32, i32, i32, i32, i32, ptr, ptr, ptr, ptr, i32, i32, i64, i64, i16, i32, ptr, ptr, ptr, i32, ptr, i32, ptr, i32, ptr, i16, i32, i32, i32, ptr, i32, ptr, ptr, ptr, ptr, i32, i32, ptr, ptr, i8, i8, i8, i64, i32, ptr, ptr, ptr, ptr, ptr, ptr, ptr, ptr, ptr, ptr, i32, i32, ptr, i8, %union.pthread_cond_t, %union.pthread_mutex_t, i64, ptr, i32, i32, i32, ptr, i64, ptr, ptr, i8, ptr, i16, ptr, ptr, ptr, ptr, ptr, ptr, i64, ptr, i64, ptr, i16, i8, i16, i32, ptr, i16, ptr, ptr, i16, ptr, ptr, ptr, i8 }
%struct.slurm_step_id_msg = type { i64, i32, i32, i32 }
%union.pthread_cond_t = type { %struct.__pthread_cond_s }
%struct.__pthread_cond_s = type { %union.__atomic_wide_counter, %union.__atomic_wide_counter, [2 x i32], [2 x i32], i32, i32, [2 x i32] }
%union.__atomic_wide_counter = type { i64 }
%union.pthread_mutex_t = type { %struct.__pthread_mutex_s }
%struct.__pthread_mutex_s = type { i32, i32, i32, i32, i32, i16, i16, %struct.__pthread_internal_list }
%struct.__pthread_internal_list = type { ptr, ptr }
%struct.srun_info_t = type { ptr, %struct.sockaddr_storage, %struct.sockaddr_storage, i32, i16 }
%struct.sockaddr_storage = type { i16, [118 x i8], i64 }

@client_ops = dso_local global { ptr, ptr, ptr, ptr, ptr, ptr, ptr, i32, [4 x i8] } { ptr @_client_readable, ptr @_client_writable, ptr null, ptr @_client_read, ptr @_client_write, ptr null, ptr null, i32 0, [4 x i8] zeroinitializer }, align 8
@.str.12 = private unnamed_addr constant [5 x i8] c"io.c\00", align 1
@.str.13 = private unnamed_addr constant [36 x i8] c"Now handling %d IO Client object(s)\00", align 1
@.str.14 = private unnamed_addr constant [44 x i8] c"adding IO connection (logical node rank %d)\00", align 1
@.str.15 = private unnamed_addr constant [27 x i8] c"No IO connection requested\00", align 1
@.str.16 = private unnamed_addr constant [26 x i8] c"connecting IO back to %pA\00", align 1
@.str.17 = private unnamed_addr constant [15 x i8] c"connect io: %m\00", align 1
@.str.18 = private unnamed_addr constant [30 x i8] c"  back from _send_io_init_msg\00", align 1
@__func__.io_initial_client_connect = private unnamed_addr constant [26 x i8] c"io_initial_client_connect\00", align 1

; Function Attrs: nounwind uwtable
define dso_local i32 @io_initial_client_connect(ptr noundef %0, ptr noundef %1, i32 noundef %2, i32 noundef %3) #0 {
  %5 = alloca i32, align 4
  %6 = alloca ptr, align 8
  %7 = alloca ptr, align 8
  %8 = alloca i32, align 4
  %9 = alloca i32, align 4
  %10 = alloca i32, align 4
  %11 = alloca ptr, align 8
  %12 = alloca ptr, align 8
  %13 = alloca i32, align 4
  store ptr %0, ptr %6, align 8
  store ptr %1, ptr %7, align 8
  store i32 %2, ptr %8, align 4
  store i32 %3, ptr %9, align 4
  call void @llvm.lifetime.start.p0(i64 4, ptr %10) #10
  store i32 -1, ptr %10, align 4
  call void @llvm.lifetime.start.p0(i64 8, ptr %11) #10
  call void @llvm.lifetime.start.p0(i64 8, ptr %12) #10
  br label %14

14:                                               ; preds = %4
  br label %15

15:                                               ; preds = %14
  %16 = call i32 @get_log_level()
  %17 = icmp sge i32 %16, 8
  br i1 %17, label %18, label %22

18:                                               ; preds = %15
  %19 = load ptr, ptr %7, align 8
  %20 = getelementptr inbounds nuw %struct.stepd_step_rec_t, ptr %19, i32 0, i32 10
  %21 = load i32, ptr %20, align 8
  call void (i32, ptr, ...) @log_var(i32 noundef 8, ptr noundef @.str.14, i32 noundef %21)
  br label %22

22:                                               ; preds = %18, %15
  br label %23

23:                                               ; preds = %22
  br label %24

24:                                               ; preds = %23
  br label %25

25:                                               ; preds = %24
  br label %26

26:                                               ; preds = %25
  %27 = load ptr, ptr %6, align 8
  %28 = getelementptr inbounds nuw %struct.srun_info_t, ptr %27, i32 0, i32 2
  %29 = call zeroext i1 @slurm_addr_is_unspec(ptr noundef %28)
  br i1 %29, label %60, label %30

30:                                               ; preds = %26
  %31 = load ptr, ptr %6, align 8
  %32 = getelementptr inbounds nuw %struct.srun_info_t, ptr %31, i32 0, i32 2
  %33 = call zeroext i16 @slurm_get_port(ptr noundef %32)
  %34 = zext i16 %33 to i32
  %35 = icmp eq i32 %34, 0
  br i1 %35, label %36, label %47

36:                                               ; preds = %30
  br label %37

37:                                               ; preds = %36
  br label %38

38:                                               ; preds = %37
  %39 = call i32 @get_log_level()
  %40 = icmp sge i32 %39, 7
  br i1 %40, label %41, label %42

41:                                               ; preds = %38
  call void (i32, ptr, ...) @log_var(i32 noundef 7, ptr noundef @.str.15)
  br label %42

42:                                               ; preds = %41, %38
  br label %43

43:                                               ; preds = %42
  br label %44

44:                                               ; preds = %43
  br label %45

45:                                               ; preds = %44
  br label %46

46:                                               ; preds = %45
  store i32 0, ptr %5, align 4
  store i32 1, ptr %13, align 4
  br label %130

47:                                               ; preds = %30
  br label %48

48:                                               ; preds = %47
  br label %49

49:                                               ; preds = %48
  %50 = call i32 @get_log_level()
  %51 = icmp sge i32 %50, 8
  br i1 %51, label %52, label %55

52:                                               ; preds = %49
  %53 = load ptr, ptr %6, align 8
  %54 = getelementptr inbounds nuw %struct.srun_info_t, ptr %53, i32 0, i32 2
  call void (i32, ptr, ...) @log_var(i32 noundef 8, ptr noundef @.str.16, ptr noundef %54)
  br label %55

55:                                               ; preds = %52, %49
  br label %56

56:                                               ; preds = %55
  br label %57

57:                                               ; preds = %56
  br label %58

58:                                               ; preds = %57
  br label %59

59:                                               ; preds = %58
  br label %60

60:                                               ; preds = %59, %26
  %61 = load ptr, ptr %6, align 8
  %62 = getelementptr inbounds nuw %struct.srun_info_t, ptr %61, i32 0, i32 2
  %63 = call i32 @slurm_open_stream(ptr noundef %62, i1 noundef zeroext true)
  store i32 %63, ptr %10, align 4
  %64 = icmp slt i32 %63, 0
  br i1 %64, label %65, label %67

65:                                               ; preds = %60
  %66 = call i32 (ptr, ...) @error(ptr noundef @.str.17)
  store i32 -1, ptr %5, align 4
  store i32 1, ptr %13, align 4
  br label %130

67:                                               ; preds = %60
  %68 = load i32, ptr %10, align 4
  call void @fd_set_blocking(i32 noundef %68)
  %69 = load i32, ptr %10, align 4
  %70 = load ptr, ptr %6, align 8
  %71 = load ptr, ptr %7, align 8
  %72 = call i32 @_send_io_init_msg(i32 noundef %69, ptr noundef %70, ptr noundef %71, i1 noundef zeroext true)
  br label %73

73:                                               ; preds = %67
  br label %74

74:                                               ; preds = %73
  %75 = call i32 @get_log_level()
  %76 = icmp sge i32 %75, 9
  br i1 %76, label %77, label %78

77:                                               ; preds = %74
  call void (i32, ptr, ...) @log_var(i32 noundef 9, ptr noundef @.str.18)
  br label %78

78:                                               ; preds = %77, %74
  br label %79

79:                                               ; preds = %78
  br label %80

80:                                               ; preds = %79
  br label %81

81:                                               ; preds = %80
  br label %82

82:                                               ; preds = %81
  %83 = load i32, ptr %10, align 4
  call void @fd_set_nonblocking(i32 noundef %83)
  %84 = call ptr @slurm_xcalloc(i64 noundef 1, i64 noundef 96, i1 noundef zeroext true, i1 noundef zeroext false, ptr noundef @.str.12, i32 noundef 1666, ptr noundef @__func__.io_initial_client_connect)
  store ptr %84, ptr %11, align 8
  %85 = load ptr, ptr %11, align 8
  %86 = getelementptr inbounds nuw %struct.client_io_info, ptr %85, i32 0, i32 0
  store i32 65794, ptr %86, align 8
  %87 = load ptr, ptr %7, align 8
  %88 = load ptr, ptr %11, align 8
  %89 = getelementptr inbounds nuw %struct.client_io_info, ptr %88, i32 0, i32 1
  store ptr %87, ptr %89, align 8
  %90 = call ptr @list_create(ptr noundef null)
  %91 = load ptr, ptr %11, align 8
  %92 = getelementptr inbounds nuw %struct.client_io_info, ptr %91, i32 0, i32 6
  store ptr %90, ptr %92, align 8
  %93 = load i32, ptr %8, align 4
  %94 = load ptr, ptr %11, align 8
  %95 = getelementptr inbounds nuw %struct.client_io_info, ptr %94, i32 0, i32 10
  store i32 %93, ptr %95, align 8
  %96 = load i32, ptr %9, align 4
  %97 = load ptr, ptr %11, align 8
  %98 = getelementptr inbounds nuw %struct.client_io_info, ptr %97, i32 0, i32 11
  store i32 %96, ptr %98, align 4
  %99 = load ptr, ptr %11, align 8
  %100 = getelementptr inbounds nuw %struct.client_io_info, ptr %99, i32 0, i32 12
  store i8 0, ptr %100, align 8
  %101 = load ptr, ptr %11, align 8
  %102 = getelementptr inbounds nuw %struct.client_io_info, ptr %101, i32 0, i32 13
  store i32 0, ptr %102, align 4
  %103 = load ptr, ptr %11, align 8
  %104 = getelementptr inbounds nuw %struct.client_io_info, ptr %103, i32 0, i32 14
  store i8 0, ptr %104, align 8
  %105 = load i32, ptr %10, align 4
  %106 = load ptr, ptr %11, align 8
  %107 = call ptr @eio_obj_create(i32 noundef %105, ptr noundef @client_ops, ptr noundef %106)
  store ptr %107, ptr %12, align 8
  %108 = load ptr, ptr %7, align 8
  %109 = getelementptr inbounds nuw %struct.stepd_step_rec_t, ptr %108, i32 0, i32 65
  %110 = load ptr, ptr %109, align 8
  %111 = load ptr, ptr %12, align 8
  call void @list_append(ptr noundef %110, ptr noundef %111)
  %112 = load ptr, ptr %7, align 8
  %113 = getelementptr inbounds nuw %struct.stepd_step_rec_t, ptr %112, i32 0, i32 63
  %114 = load ptr, ptr %113, align 8
  %115 = load ptr, ptr %12, align 8
  call void @eio_new_initial_obj(ptr noundef %114, ptr noundef %115)
  br label %116

116:                                              ; preds = %82
  br label %117

117:                                              ; preds = %116
  %118 = call i32 @get_log_level()
  %119 = icmp sge i32 %118, 9
  br i1 %119, label %120, label %125

120:                                              ; preds = %117
  %121 = load ptr, ptr %7, align 8
  %122 = getelementptr inbounds nuw %struct.stepd_step_rec_t, ptr %121, i32 0, i32 65
  %123 = load ptr, ptr %122, align 8
  %124 = call i32 @list_count(ptr noundef %123)
  call void (i32, ptr, ...) @log_var(i32 noundef 9, ptr noundef @.str.13, i32 noundef %124)
  br label %125

125:                                              ; preds = %120, %117
  br label %126

126:                                              ; preds = %125
  br label %127

127:                                              ; preds = %126
  br label %128

128:                                              ; preds = %127
  br label %129

129:                                              ; preds = %128
  store i32 0, ptr %5, align 4
  store i32 1, ptr %13, align 4
  br label %130

130:                                              ; preds = %129, %65, %46
  call void @llvm.lifetime.end.p0(i64 8, ptr %12) #10
  call void @llvm.lifetime.end.p0(i64 8, ptr %11) #10
  call void @llvm.lifetime.end.p0(i64 4, ptr %10) #10
  %131 = load i32, ptr %5, align 4
  ret i32 %131
}