; Function Attrs: nounwind uwtable
define dso_local range(i32 -1, 1) i32 @io_initial_client_connect(ptr noundef %0, ptr noundef %1, i32 noundef %2, i32 noundef %3) local_unnamed_addr #0 {
  %5 = tail call i32 @get_log_level() #11
  %6 = icmp sgt i32 %5, 7
  br i1 %6, label %7, label %10

7:                                                ; preds = %4
  %8 = getelementptr inbounds nuw i8, ptr %1, i64 152
  %9 = load i32, ptr %8, align 8
  tail call void (i32, ptr, ...) @log_var(i32 noundef 8, ptr noundef nonnull @.str.14, i32 noundef %9) #11
  br label %10

10:                                               ; preds = %7, %4
  %11 = getelementptr inbounds nuw i8, ptr %0, i64 136
  %12 = tail call zeroext i1 @slurm_addr_is_unspec(ptr noundef nonnull %11) #11
  br i1 %12, label %23, label %13

13:                                               ; preds = %10
  %14 = tail call zeroext i16 @slurm_get_port(ptr noundef nonnull %11) #11
  %15 = icmp eq i16 %14, 0
  %16 = tail call i32 @get_log_level() #11
  br i1 %15, label %17, label %20

17:                                               ; preds = %13
  %18 = icmp sgt i32 %16, 6
  br i1 %18, label %19, label %52

19:                                               ; preds = %17
  tail call void (i32, ptr, ...) @log_var(i32 noundef 7, ptr noundef nonnull @.str.15) #11
  br label %52

20:                                               ; preds = %13
  %21 = icmp sgt i32 %16, 7
  br i1 %21, label %22, label %23

22:                                               ; preds = %20
  tail call void (i32, ptr, ...) @log_var(i32 noundef 8, ptr noundef nonnull @.str.16, ptr noundef nonnull %11) #11
  br label %23

23:                                               ; preds = %20, %22, %10
  %24 = tail call i32 @slurm_open_stream(ptr noundef nonnull %11, i1 noundef zeroext true) #11
  %25 = icmp slt i32 %24, 0
  br i1 %25, label %26, label %28

26:                                               ; preds = %23
  %27 = tail call i32 (ptr, ...) @error(ptr noundef nonnull @.str.17) #11
  br label %52

28:                                               ; preds = %23
  tail call void @fd_set_blocking(i32 noundef %24) #11
  tail call fastcc void @_send_io_init_msg(i32 noundef %24, ptr noundef nonnull %0, ptr noundef %1, i1 noundef zeroext true)
  %29 = tail call i32 @get_log_level() #11
  %30 = icmp sgt i32 %29, 8
  br i1 %30, label %31, label %32

31:                                               ; preds = %28
  tail call void (i32, ptr, ...) @log_var(i32 noundef 9, ptr noundef nonnull @.str.18) #11
  br label %32

32:                                               ; preds = %31, %28
  tail call void @fd_set_nonblocking(i32 noundef %24) #11
  %33 = tail call ptr @slurm_xcalloc(i64 noundef 1, i64 noundef 96, i1 noundef zeroext true, i1 noundef zeroext false, ptr noundef nonnull @.str.12, i32 noundef 1666, ptr noundef nonnull @__func__.io_initial_client_connect) #11
  store i32 65794, ptr %33, align 8
  %34 = getelementptr inbounds nuw i8, ptr %33, i64 8
  store ptr %1, ptr %34, align 8
  %35 = tail call ptr @list_create(ptr noundef null) #11
  %36 = getelementptr inbounds nuw i8, ptr %33, i64 48
  store ptr %35, ptr %36, align 8
  %37 = getelementptr inbounds nuw i8, ptr %33, i64 72
  store i32 %2, ptr %37, align 8
  %38 = getelementptr inbounds nuw i8, ptr %33, i64 76
  store i32 %3, ptr %38, align 4
  %39 = getelementptr inbounds nuw i8, ptr %33, i64 80
  store i8 0, ptr %39, align 8
  %40 = getelementptr inbounds nuw i8, ptr %33, i64 84
  store i32 0, ptr %40, align 4
  %41 = getelementptr inbounds nuw i8, ptr %33, i64 88
  store i8 0, ptr %41, align 8
  %42 = tail call ptr @eio_obj_create(i32 noundef %24, ptr noundef nonnull @client_ops, ptr noundef nonnull %33) #11
  %43 = getelementptr inbounds nuw i8, ptr %1, i64 504
  %44 = load ptr, ptr %43, align 8
  tail call void @list_append(ptr noundef %44, ptr noundef %42) #11
  %45 = getelementptr inbounds nuw i8, ptr %1, i64 488
  %46 = load ptr, ptr %45, align 8
  tail call void @eio_new_initial_obj(ptr noundef %46, ptr noundef %42) #11
  %47 = tail call i32 @get_log_level() #11
  %48 = icmp sgt i32 %47, 8
  br i1 %48, label %49, label %52

49:                                               ; preds = %32
  %50 = load ptr, ptr %43, align 8
  %51 = tail call i32 @list_count(ptr noundef %50) #11
  tail call void (i32, ptr, ...) @log_var(i32 noundef 9, ptr noundef nonnull @.str.13, i32 noundef %51) #11
  br label %52

52:                                               ; preds = %32, %49, %17, %19, %26
  %.0 = phi i32 [ -1, %26 ], [ 0, %19 ], [ 0, %17 ], [ 0, %49 ], [ 0, %32 ]
  ret i32 %.0
}